target datalayout = "e-m:e-p270:32:32-p271:32:32-p272:64:64-i64:64-i128:128-f80:128-n8:16:32:64-S128"
target triple = "x86_64-pc-linux-gnu"

%struct.timespec = type { i64, i64 }

@.str.3 = private unnamed_addr constant [39 x i8] c"Finished computing equivalent nodes.  \00", align 1
@.str.4 = private unnamed_addr constant [5 x i8] c"Time\00", align 1
@.str.31 = private unnamed_addr constant [5 x i8] c"%s =\00", align 1
@.str.32 = private unnamed_addr constant [11 x i8] c"%9.2f sec\0A\00", align 1

; Function Attrs: nounwind uwtable
define internal void @Abc_PrintTime(i32 noundef %0, ptr noundef %1, i64 noundef %2) #0 {
  %4 = alloca i32, align 4
  %5 = alloca ptr, align 8
  %6 = alloca i64, align 8
  store i32 %0, ptr %4, align 4
  store ptr %1, ptr %5, align 8
  store i64 %2, ptr %6, align 8
  %7 = load ptr, ptr %5, align 8
  call void (i32, ptr, ...) @Abc_Print(i32 noundef 1, ptr noundef @.str.31, ptr noundef %7)
  %8 = load i64, ptr %6, align 8
  %9 = sitofp i64 %8 to double
  %10 = fmul double 1.000000e+00, %9
  %11 = fdiv double %10, 1.000000e+06
  call void (i32, ptr, ...) @Abc_Print(i32 noundef 1, ptr noundef @.str.32, double noundef %11)
  ret void
}

; Function Attrs: nounwind uwtable
define internal i64 @Abc_Clock() #0 {
  %1 = alloca i64, align 8
  %2 = alloca %struct.timespec, align 8
  %3 = alloca i64, align 8
  %4 = call i32 @clock_gettime(i32 noundef 1, ptr noundef %2) #12
  %5 = icmp slt i32 %4, 0
  br i1 %5, label %6, label %7

6:                                                ; preds = %0
  store i64 -1, ptr %1, align 8
  br label %18

7:                                                ; preds = %0
  %8 = getelementptr inbounds %struct.timespec, ptr %2, i32 0, i32 0
  %9 = load i64, ptr %8, align 8
  %10 = mul nsw i64 %9, 1000000
  store i64 %10, ptr %3, align 8
  %11 = getelementptr inbounds %struct.timespec, ptr %2, i32 0, i32 1
  %12 = load i64, ptr %11, align 8
  %13 = mul nsw i64 %12, 1000000
  %14 = sdiv i64 %13, 1000000000
  %15 = load i64, ptr %3, align 8
  %16 = add nsw i64 %15, %14
  store i64 %16, ptr %3, align 8
  %17 = load i64, ptr %3, align 8
  store i64 %17, ptr %1, align 8
  br label %18

18:                                               ; preds = %7, %6
  %19 = load i64, ptr %1, align 8
  ret i64 %19
}

; Function Attrs: nounwind uwtable
define void @Acec_ComputeEquivClasses(ptr noundef %0, ptr noundef %1, ptr noundef %2, ptr noundef %3) #0 {
  %5 = alloca ptr, align 8
  %6 = alloca ptr, align 8
  %7 = alloca ptr, align 8
  %8 = alloca ptr, align 8
  %9 = alloca i64, align 8
  %10 = alloca ptr, align 8
  %11 = alloca ptr, align 8
  store ptr %0, ptr %5, align 8
  store ptr %1, ptr %6, align 8
  store ptr %2, ptr %7, align 8
  store ptr %3, ptr %8, align 8
  %12 = call i64 @Abc_Clock()
  store i64 %12, ptr %9, align 8
  %13 = load ptr, ptr %5, align 8
  %14 = call ptr @Acec_CommonStart(ptr noundef null, ptr noundef %13)
  store ptr %14, ptr %10, align 8
  %15 = load ptr, ptr %10, align 8
  %16 = load ptr, ptr %6, align 8
  %17 = call ptr @Acec_CommonStart(ptr noundef %15, ptr noundef %16)
  store ptr %17, ptr %10, align 8
  %18 = load ptr, ptr %10, align 8
  call void @Acec_CommonFinish(ptr noundef %18)
  %19 = load ptr, ptr %10, align 8
  %20 = call ptr @Gia_ManComputeGiaEquivs(ptr noundef %19, i32 noundef 100, i32 noundef 0)
  store ptr %20, ptr %11, align 8
  %21 = load ptr, ptr %5, align 8
  %22 = load ptr, ptr %10, align 8
  %23 = call ptr @Acec_CountRemap(ptr noundef %21, ptr noundef %22)
  %24 = load ptr, ptr %7, align 8
  store ptr %23, ptr %24, align 8
  %25 = load ptr, ptr %6, align 8
  %26 = load ptr, ptr %10, align 8
  %27 = call ptr @Acec_CountRemap(ptr noundef %25, ptr noundef %26)
  %28 = load ptr, ptr %8, align 8
  store ptr %27, ptr %28, align 8
  %29 = load ptr, ptr %10, align 8
  call void @Gia_ManStop(ptr noundef %29)
  %30 = load ptr, ptr %11, align 8
  call void @Gia_ManStop(ptr noundef %30)
  %31 = call i32 (ptr, ...) @printf(ptr noundef @.str.3)
  %32 = call i64 @Abc_Clock()
  %33 = load i64, ptr %9, align 8
  %34 = sub nsw i64 %32, %33
  call void @Abc_PrintTime(i32 noundef 1, ptr noundef @.str.4, i64 noundef %34)
  ret void
}