; Function Attrs: nounwind uwtable
define void @Acec_ComputeEquivClasses(ptr noundef %0, ptr noundef %1, ptr noundef writeonly captures(none) initializes((0, 8)) %2, ptr noundef writeonly captures(none) initializes((0, 8)) %3) local_unnamed_addr #2 {
  %5 = alloca %struct.timespec, align 8
  %6 = alloca %struct.timespec, align 8
  call void @llvm.lifetime.start.p0(i64 16, ptr nonnull %6)
  %7 = call i32 @clock_gettime(i32 noundef 1, ptr noundef nonnull %6) #20
  %8 = icmp slt i32 %7, 0
  br i1 %8, label %Abc_Clock.exit, label %9

9:                                                ; preds = %4
  %10 = load i64, ptr %6, align 8
  %.neg15 = mul i64 %10, -1000000
  %11 = getelementptr inbounds nuw i8, ptr %6, i64 8
  %12 = load i64, ptr %11, align 8
  %.neg = sdiv i64 %12, -1000
  %.neg16 = add i64 %.neg, %.neg15
  br label %Abc_Clock.exit

Abc_Clock.exit:                                   ; preds = %4, %9
  %.0.i.neg = phi i64 [ %.neg16, %9 ], [ 1, %4 ]
  call void @llvm.lifetime.end.p0(i64 16, ptr nonnull %6)
  %13 = call ptr @Acec_CommonStart(ptr noundef null, ptr noundef %0)
  %14 = call ptr @Acec_CommonStart(ptr noundef %13, ptr noundef %1)
  call void @Acec_CommonFinish(ptr noundef %14)
  %15 = call ptr @Gia_ManComputeGiaEquivs(ptr noundef %14, i32 noundef 100, i32 noundef 0) #20
  %16 = call ptr @Acec_CountRemap(ptr noundef %0, ptr noundef %14)
  store ptr %16, ptr %2, align 8
  %17 = call ptr @Acec_CountRemap(ptr noundef %1, ptr noundef %14)
  store ptr %17, ptr %3, align 8
  call void @Gia_ManStop(ptr noundef %14) #20
  call void @Gia_ManStop(ptr noundef %15) #20
  %18 = call i32 (ptr, ...) @printf(ptr noundef nonnull dereferenceable(1) @.str.3)
  call void @llvm.lifetime.start.p0(i64 16, ptr nonnull %5)
  %19 = call i32 @clock_gettime(i32 noundef 1, ptr noundef nonnull %5) #20
  %20 = icmp slt i32 %19, 0
  br i1 %20, label %Abc_Clock.exit14, label %21

21:                                               ; preds = %Abc_Clock.exit
  %22 = load i64, ptr %5, align 8
  %23 = mul nsw i64 %22, 1000000
  %24 = getelementptr inbounds nuw i8, ptr %5, i64 8
  %25 = load i64, ptr %24, align 8
  %26 = sdiv i64 %25, 1000
  %27 = add nsw i64 %26, %23
  br label %Abc_Clock.exit14

Abc_Clock.exit14:                                 ; preds = %Abc_Clock.exit, %21
  %.0.i13 = phi i64 [ %27, %21 ], [ -1, %Abc_Clock.exit ]
  call void @llvm.lifetime.end.p0(i64 16, ptr nonnull %5)
  %28 = add i64 %.0.i13, %.0.i.neg
  call void (i32, ptr, ...) @Abc_Print(i32 poison, ptr noundef nonnull @.str.31, ptr noundef nonnull @.str.4)
  %29 = sitofp i64 %28 to double
  %30 = fdiv double %29, 1.000000e+06
  call void (i32, ptr, ...) @Abc_Print(i32 poison, ptr noundef nonnull @.str.32, double noundef %30)
  ret void
}